target datalayout = "e-m:e-p270:32:32-p271:32:32-p272:64:64-i64:64-i128:128-f80:128-n8:16:32:64-S128"
target triple = "x86_64-pc-linux-gnu"

%"class.llvm::pdb::SymbolCache" = type { ptr, ptr, %"class.std::vector", %"class.llvm::DenseMap", %"class.llvm::DenseMap.0", %"class.std::vector.3", %"class.std::vector.8", %"class.llvm::DenseMap.13", %"class.llvm::DenseMap.13", %"class.llvm::DenseMap.16", %"class.llvm::DenseMap.16", %"class.llvm::DenseMap.19", %"class.llvm::DenseMap.22" }
%"class.std::vector" = type { %"struct.std::_Vector_base" }
%"struct.std::_Vector_base" = type { %"struct.std::_Vector_base<std::unique_ptr<llvm::pdb::NativeRawSymbol>, std::allocator<std::unique_ptr<llvm::pdb::NativeRawSymbol>>>::_Vector_impl" }
%"struct.std::_Vector_base<std::unique_ptr<llvm::pdb::NativeRawSymbol>, std::allocator<std::unique_ptr<llvm::pdb::NativeRawSymbol>>>::_Vector_impl" = type { %"struct.std::_Vector_base<std::unique_ptr<llvm::pdb::NativeRawSymbol>, std::allocator<std::unique_ptr<llvm::pdb::NativeRawSymbol>>>::_Vector_impl_data" }
%"struct.std::_Vector_base<std::unique_ptr<llvm::pdb::NativeRawSymbol>, std::allocator<std::unique_ptr<llvm::pdb::NativeRawSymbol>>>::_Vector_impl_data" = type { ptr, ptr, ptr }
%"class.llvm::DenseMap" = type <{ ptr, i32, i32, i32, [4 x i8] }>
%"class.llvm::DenseMap.0" = type <{ ptr, i32, i32, i32, [4 x i8] }>
%"class.std::vector.3" = type { %"struct.std::_Vector_base.4" }
%"struct.std::_Vector_base.4" = type { %"struct.std::_Vector_base<unsigned int, std::allocator<unsigned int>>::_Vector_impl" }
%"struct.std::_Vector_base<unsigned int, std::allocator<unsigned int>>::_Vector_impl" = type { %"struct.std::_Vector_base<unsigned int, std::allocator<unsigned int>>::_Vector_impl_data" }
%"struct.std::_Vector_base<unsigned int, std::allocator<unsigned int>>::_Vector_impl_data" = type { ptr, ptr, ptr }
%"class.std::vector.8" = type { %"struct.std::_Vector_base.9" }
%"struct.std::_Vector_base.9" = type { %"struct.std::_Vector_base<std::unique_ptr<llvm::pdb::NativeSourceFile>, std::allocator<std::unique_ptr<llvm::pdb::NativeSourceFile>>>::_Vector_impl" }
%"struct.std::_Vector_base<std::unique_ptr<llvm::pdb::NativeSourceFile>, std::allocator<std::unique_ptr<llvm::pdb::NativeSourceFile>>>::_Vector_impl" = type { %"struct.std::_Vector_base<std::unique_ptr<llvm::pdb::NativeSourceFile>, std::allocator<std::unique_ptr<llvm::pdb::NativeSourceFile>>>::_Vector_impl_data" }
%"struct.std::_Vector_base<std::unique_ptr<llvm::pdb::NativeSourceFile>, std::allocator<std::unique_ptr<llvm::pdb::NativeSourceFile>>>::_Vector_impl_data" = type { ptr, ptr, ptr }
%"class.llvm::DenseMap.13" = type <{ ptr, i32, i32, i32, [4 x i8] }>
%"class.llvm::DenseMap.16" = type <{ ptr, i32, i32, i32, [4 x i8] }>
%"class.llvm::DenseMap.19" = type <{ ptr, i32, i32, i32, [4 x i8] }>
%"class.llvm::DenseMap.22" = type <{ ptr, i32, i32, i32, [4 x i8] }>

; Function Attrs: mustprogress nounwind uwtable
define dso_local noundef i32 @_ZNK4llvm3pdb11SymbolCache16getNumCompilandsEv(ptr noundef nonnull align 8 dereferenceable(280) %0) #0 align 2 {
  %2 = alloca i32, align 4
  %3 = alloca ptr, align 8
  store ptr %0, ptr %3, align 8
  %4 = load ptr, ptr %3, align 8
  %5 = getelementptr inbounds nuw %"class.llvm::pdb::SymbolCache", ptr %4, i32 0, i32 1
  %6 = load ptr, ptr %5, align 8
  %7 = icmp ne ptr %6, null
  br i1 %7, label %9, label %8

8:                                                ; preds = %1
  store i32 0, ptr %2, align 4
  br label %14

9:                                                ; preds = %1
  %10 = getelementptr inbounds nuw %"class.llvm::pdb::SymbolCache", ptr %4, i32 0, i32 1
  %11 = load ptr, ptr %10, align 8
  %12 = call noundef nonnull align 8 dereferenceable(352) ptr @_ZNK4llvm3pdb9DbiStream7modulesEv(ptr noundef nonnull align 8 dereferenceable(1224) %11)
  %13 = call noundef i32 @_ZNK4llvm3pdb13DbiModuleList14getModuleCountEv(ptr noundef nonnull align 8 dereferenceable(352) %12)
  store i32 %13, ptr %2, align 4
  br label %14

14:                                               ; preds = %9, %8
  %15 = load i32, ptr %2, align 4
  ret i32 %15
}