; Function Attrs: mustprogress nounwind uwtable
define dso_local noundef i32 @_ZNK4llvm3pdb11SymbolCache16getNumCompilandsEv(ptr noundef nonnull readonly align 8 captures(none) dereferenceable(280) %0) local_unnamed_addr #0 align 2 {
  %2 = getelementptr inbounds nuw i8, ptr %0, i64 8
  %3 = load ptr, ptr %2, align 8
  %.not = icmp eq ptr %3, null
  br i1 %.not, label %7, label %4

4:                                                ; preds = %1
  %5 = tail call noundef nonnull align 8 dereferenceable(352) ptr @_ZNK4llvm3pdb9DbiStream7modulesEv(ptr noundef nonnull align 8 dereferenceable(1224) %3) #16
  %6 = tail call noundef i32 @_ZNK4llvm3pdb13DbiModuleList14getModuleCountEv(ptr noundef nonnull align 8 dereferenceable(352) %5) #16
  br label %7

7:                                                ; preds = %1, %4
  %.0 = phi i32 [ %6, %4 ], [ 0, %1 ]
  ret i32 %.0
}